; ModuleID = '7/682.c'
source_filename = "7/682.c"
target datalayout = "e-m:e-p270:32:32-p271:32:32-p272:64:64-i64:64-f80:128-n8:16:32:64-S128"
target triple = "x86_64-pc-linux-gnu"

@.str = private unnamed_addr constant [3 x i8] c"%s\00", align 1
@.str.1 = private unnamed_addr constant [3 x i8] c"%c\00", align 1

; Function Attrs: noinline nounwind uwtable
define dso_local i32 @main() #0 {
  %1 = alloca i32, align 4
  %2 = alloca [256 x i8], align 16
  %3 = alloca [256 x i8], align 16
  %4 = alloca [256 x i8], align 16
  %5 = alloca i32, align 4
  %6 = alloca i32, align 4
  %7 = alloca i32, align 4
  %8 = alloca i32, align 4
  %9 = alloca i32, align 4
  %10 = alloca i32, align 4
  %11 = alloca i32, align 4
  %12 = alloca i32, align 4
  %13 = alloca i32, align 4
  %14 = alloca [256 x i32], align 16
  store i32 0, i32* %1, align 4
  store i32 0, i32* %6, align 4
  store i32 -1, i32* %7, align 4
  store i32 0, i32* %12, align 4
  %15 = getelementptr inbounds [256 x i8], [256 x i8]* %2, i64 0, i64 0
  %16 = call i32 (i8*, ...) @__isoc99_scanf(i8* getelementptr inbounds ([3 x i8], [3 x i8]* @.str, i64 0, i64 0), i8* %15)
  %17 = getelementptr inbounds [256 x i8], [256 x i8]* %3, i64 0, i64 0
  %18 = call i32 (i8*, ...) @__isoc99_scanf(i8* getelementptr inbounds ([3 x i8], [3 x i8]* @.str, i64 0, i64 0), i8* %17)
  %19 = getelementptr inbounds [256 x i8], [256 x i8]* %4, i64 0, i64 0
  %20 = call i32 (i8*, ...) @__isoc99_scanf(i8* getelementptr inbounds ([3 x i8], [3 x i8]* @.str, i64 0, i64 0), i8* %19)
  store i32 0, i32* %5, align 4
  br label %21

21:                                               ; preds = %42, %0
  %22 = load i32, i32* %5, align 4
  %23 = icmp slt i32 %22, 256
  br i1 %23, label %24, label %45

24:                                               ; preds = %21
  %25 = load i32, i32* %5, align 4
  %26 = sext i32 %25 to i64
  %27 = getelementptr inbounds [256 x i8], [256 x i8]* %2, i64 0, i64 %26
  %28 = load i8, i8* %27, align 1
  %29 = sext i8 %28 to i32
  %30 = getelementptr inbounds [256 x i8], [256 x i8]* %3, i64 0, i64 0
  %31 = load i8, i8* %30, align 16
  %32 = sext i8 %31 to i32
  %33 = icmp eq i32 %29, %32
  br i1 %33, label %34, label %41

34:                                               ; preds = %24
  store i32 0, i32* %7, align 4
  %35 = load i32, i32* %5, align 4
  %36 = load i32, i32* %6, align 4
  %37 = sext i32 %36 to i64
  %38 = getelementptr inbounds [256 x i32], [256 x i32]* %14, i64 0, i64 %37
  store i32 %35, i32* %38, align 4
  %39 = load i32, i32* %6, align 4
  %40 = add nsw i32 %39, 1
  store i32 %40, i32* %6, align 4
  br label %41

41:                                               ; preds = %34, %24
  br label %42

42:                                               ; preds = %41
  %43 = load i32, i32* %5, align 4
  %44 = add nsw i32 %43, 1
  store i32 %44, i32* %5, align 4
  br label %21

45:                                               ; preds = %21
  %46 = getelementptr inbounds [256 x i8], [256 x i8]* %3, i64 0, i64 0
  %47 = call i64 @strlen(i8* %46) #3
  %48 = trunc i64 %47 to i32
  store i32 %48, i32* %8, align 4
  %49 = getelementptr inbounds [256 x i8], [256 x i8]* %4, i64 0, i64 0
  %50 = call i64 @strlen(i8* %49) #3
  %51 = trunc i64 %50 to i32
  store i32 %51, i32* %9, align 4
  %52 = getelementptr inbounds [256 x i8], [256 x i8]* %2, i64 0, i64 0
  %53 = call i64 @strlen(i8* %52) #3
  %54 = trunc i64 %53 to i32
  store i32 %54, i32* %10, align 4
  %55 = load i32, i32* %7, align 4
  %56 = icmp ne i32 %55, -1
  br i1 %56, label %57, label %177

57:                                               ; preds = %45
  store i32 0, i32* %11, align 4
  br label %58

58:                                               ; preds = %166, %57
  %59 = load i32, i32* %11, align 4
  %60 = load i32, i32* %6, align 4
  %61 = icmp slt i32 %59, %60
  br i1 %61, label %62, label %169

62:                                               ; preds = %58
  %63 = load i32, i32* %11, align 4
  %64 = sext i32 %63 to i64
  %65 = getelementptr inbounds [256 x i32], [256 x i32]* %14, i64 0, i64 %64
  %66 = load i32, i32* %65, align 4
  store i32 %66, i32* %5, align 4
  br label %67

67:                                               ; preds = %98, %62
  %68 = load i32, i32* %5, align 4
  %69 = load i32, i32* %11, align 4
  %70 = sext i32 %69 to i64
  %71 = getelementptr inbounds [256 x i32], [256 x i32]* %14, i64 0, i64 %70
  %72 = load i32, i32* %71, align 4
  %73 = load i32, i32* %8, align 4
  %74 = add nsw i32 %72, %73
  %75 = icmp slt i32 %68, %74
  br i1 %75, label %76, label %101

76:                                               ; preds = %67
  %77 = load i32, i32* %11, align 4
  %78 = sext i32 %77 to i64
  %79 = getelementptr inbounds [256 x i32], [256 x i32]* %14, i64 0, i64 %78
  %80 = load i32, i32* %79, align 4
  store i32 %80, i32* %13, align 4
  %81 = load i32, i32* %5, align 4
  %82 = sext i32 %81 to i64
  %83 = getelementptr inbounds [256 x i8], [256 x i8]* %2, i64 0, i64 %82
  %84 = load i8, i8* %83, align 1
  %85 = sext i8 %84 to i32
  %86 = load i32, i32* %5, align 4
  %87 = load i32, i32* %13, align 4
  %88 = sub nsw i32 %86, %87
  %89 = sext i32 %88 to i64
  %90 = getelementptr inbounds [256 x i8], [256 x i8]* %3, i64 0, i64 %89
  %91 = load i8, i8* %90, align 1
  %92 = sext i8 %91 to i32
  %93 = icmp ne i32 %85, %92
  br i1 %93, label %94, label %97

94:                                               ; preds = %76
  %95 = load i32, i32* %12, align 4
  %96 = add nsw i32 %95, 1
  store i32 %96, i32* %12, align 4
  br label %101

97:                                               ; preds = %76
  br label %98

98:                                               ; preds = %97
  %99 = load i32, i32* %5, align 4
  %100 = add nsw i32 %99, 1
  store i32 %100, i32* %5, align 4
  br label %67

101:                                              ; preds = %94, %67
  %102 = load i32, i32* %5, align 4
  %103 = load i32, i32* %11, align 4
  %104 = sext i32 %103 to i64
  %105 = getelementptr inbounds [256 x i32], [256 x i32]* %14, i64 0, i64 %104
  %106 = load i32, i32* %105, align 4
  %107 = load i32, i32* %8, align 4
  %108 = add nsw i32 %106, %107
  %109 = icmp eq i32 %102, %108
  br i1 %109, label %110, label %165

110:                                              ; preds = %101
  store i32 0, i32* %13, align 4
  br label %111

111:                                              ; preds = %125, %110
  %112 = load i32, i32* %13, align 4
  %113 = load i32, i32* %11, align 4
  %114 = sext i32 %113 to i64
  %115 = getelementptr inbounds [256 x i32], [256 x i32]* %14, i64 0, i64 %114
  %116 = load i32, i32* %115, align 4
  %117 = icmp slt i32 %112, %116
  br i1 %117, label %118, label %128

118:                                              ; preds = %111
  %119 = load i32, i32* %13, align 4
  %120 = sext i32 %119 to i64
  %121 = getelementptr inbounds [256 x i8], [256 x i8]* %2, i64 0, i64 %120
  %122 = load i8, i8* %121, align 1
  %123 = sext i8 %122 to i32
  %124 = call i32 (i8*, ...) @printf(i8* getelementptr inbounds ([3 x i8], [3 x i8]* @.str.1, i64 0, i64 0), i32 %123)
  br label %125

125:                                              ; preds = %118
  %126 = load i32, i32* %13, align 4
  %127 = add nsw i32 %126, 1
  store i32 %127, i32* %13, align 4
  br label %111

128:                                              ; preds = %111
  store i32 0, i32* %13, align 4
  br label %129

129:                                              ; preds = %140, %128
  %130 = load i32, i32* %13, align 4
  %131 = load i32, i32* %9, align 4
  %132 = icmp slt i32 %130, %131
  br i1 %132, label %133, label %143

133:                                              ; preds = %129
  %134 = load i32, i32* %13, align 4
  %135 = sext i32 %134 to i64
  %136 = getelementptr inbounds [256 x i8], [256 x i8]* %4, i64 0, i64 %135
  %137 = load i8, i8* %136, align 1
  %138 = sext i8 %137 to i32
  %139 = call i32 (i8*, ...) @printf(i8* getelementptr inbounds ([3 x i8], [3 x i8]* @.str.1, i64 0, i64 0), i32 %138)
  br label %140

140:                                              ; preds = %133
  %141 = load i32, i32* %13, align 4
  %142 = add nsw i32 %141, 1
  store i32 %142, i32* %13, align 4
  br label %129

143:                                              ; preds = %129
  %144 = load i32, i32* %11, align 4
  %145 = sext i32 %144 to i64
  %146 = getelementptr inbounds [256 x i32], [256 x i32]* %14, i64 0, i64 %145
  %147 = load i32, i32* %146, align 4
  %148 = load i32, i32* %8, align 4
  %149 = add nsw i32 %147, %148
  store i32 %149, i32* %13, align 4
  br label %150

150:                                              ; preds = %161, %143
  %151 = load i32, i32* %13, align 4
  %152 = load i32, i32* %10, align 4
  %153 = icmp slt i32 %151, %152
  br i1 %153, label %154, label %164

154:                                              ; preds = %150
  %155 = load i32, i32* %13, align 4
  %156 = sext i32 %155 to i64
  %157 = getelementptr inbounds [256 x i8], [256 x i8]* %2, i64 0, i64 %156
  %158 = load i8, i8* %157, align 1
  %159 = sext i8 %158 to i32
  %160 = call i32 (i8*, ...) @printf(i8* getelementptr inbounds ([3 x i8], [3 x i8]* @.str.1, i64 0, i64 0), i32 %159)
  br label %161

161:                                              ; preds = %154
  %162 = load i32, i32* %13, align 4
  %163 = add nsw i32 %162, 1
  store i32 %163, i32* %13, align 4
  br label %150

164:                                              ; preds = %150
  br label %169

165:                                              ; preds = %101
  br label %166

166:                                              ; preds = %165
  %167 = load i32, i32* %11, align 4
  %168 = add nsw i32 %167, 1
  store i32 %168, i32* %11, align 4
  br label %58

169:                                              ; preds = %164, %58
  %170 = load i32, i32* %12, align 4
  %171 = load i32, i32* %6, align 4
  %172 = icmp eq i32 %170, %171
  br i1 %172, label %173, label %176

173:                                              ; preds = %169
  %174 = getelementptr inbounds [256 x i8], [256 x i8]* %2, i64 0, i64 0
  %175 = call i32 (i8*, ...) @printf(i8* getelementptr inbounds ([3 x i8], [3 x i8]* @.str, i64 0, i64 0), i8* %174)
  br label %176

176:                                              ; preds = %173, %169
  br label %180

177:                                              ; preds = %45
  %178 = getelementptr inbounds [256 x i8], [256 x i8]* %2, i64 0, i64 0
  %179 = call i32 (i8*, ...) @printf(i8* getelementptr inbounds ([3 x i8], [3 x i8]* @.str, i64 0, i64 0), i8* %178)
  br label %180

180:                                              ; preds = %177, %176
  ret i32 0
}

declare dso_local i32 @__isoc99_scanf(i8*, ...) #1

; Function Attrs: nounwind readonly
declare dso_local i64 @strlen(i8*) #2

declare dso_local i32 @printf(i8*, ...) #1


!llvm.module.flags = !{!0}
!llvm.ident = !{!1}

!0 = !{i32 1, !"wchar_size", i32 4}
!1 = !{!"clang version 10.0.0-4ubuntu1 "}
